(lp0
(S'move'
p1
(I1
I0
tp2
tp3
ag3
ag3
ag3
ag3
ag3
ag3
ag3
a(g1
(I1
I-1
tp4
tp5
ag3
ag3
a(g1
(I1
I1
tp6
tp7
ag5
ag7
ag3
ag3
a(g1
(I0
I-1
tp8
tp9
ag5
a(g1
(I0
I1
tp10
tp11
ag7
ag3
ag3
ag7
ag5
ag3
ag3
ag3
ag3
a.