(lp0
(S'move'
p1
(I-1
I0
tp2
tp3
a(g1
(I0
I-1
tp4
tp5
a(S'shield'
p6
g4
tp7
a(g6
(I0
I0
tp8
tp9
a(g1
(I1
I1
tp10
tp11
a(g1
(I1
I-1
tp12
tp13
a(g1
(I1
I0
tp14
tp15
ag13
a(g1
(I-1
I-1
tp16
tp17
ag3
ag3
a(g6
(I0
I1
tp18
tp19
ag5
ag5
a(g6
g8
tp20
a(g1
(I-1
I1
tp21
tp22
a(g6
g2
tp23
ag15
a(g6
g8
tp24
ag17
ag15
ag15
ag15
ag15
a.