(lp0
(S'move'
p1
(I0
I1
tp2
tp3
a(g1
(I-1
I1
tp4
tp5
ag5
ag5
ag3
a(S'shield'
p6
(I1
I-1
tp7
tp8
a(g6
(I0
I0
tp9
tp10
a(g1
(I1
I0
tp11
tp12
a(g6
(I0
I-1
tp13
tp14
a(g6
g9
tp15
a(g1
(I-1
I-1
tp16
tp17
a(g1
g7
tp18
a(g6
g7
tp19
ag18
a(g6
g9
tp20
ag18
ag12
ag18
a(g6
(I1
I1
tp21
tp22
a(g6
g9
tp23
a(g1
g21
tp24
ag3
ag3
a(g1
(I-1
I0
tp25
tp26
a(g6
g11
tp27
a(g6
g9
tp28
ag12
ag24
ag24
a.