(lp0
(S'move'
p1
(I-1
I1
tp2
tp3
a(g1
(I-1
I0
tp4
tp5
a(g1
(I0
I-1
tp6
tp7
ag7
ag5
ag5
ag3
a(g1
(I1
I0
tp8
tp9
ag9
a(g1
(I1
I1
tp10
tp11
ag7
ag7
a(S'shield'
p12
g6
tp13
a(g12
(I0
I0
tp14
tp15
ag5
ag5
a(g1
(I-1
I-1
tp16
tp17
ag7
a(g1
(I1
I-1
tp18
tp19
ag9
ag9
ag9
ag9
a.