(lp0
(S'move'
p1
(I0
I1
tp2
tp3
ag3
ag3
a(g1
(I-1
I1
tp4
tp5
a(g1
(I-1
I0
tp6
tp7
ag7
a(g1
(I-1
I-1
tp8
tp9
a(g1
(I0
I-1
tp10
tp11
ag11
ag9
a(S'shield'
p12
(I1
I0
tp13
tp14
a(g1
g13
tp15
ag15
a(g12
(I0
I0
tp16
tp17
ag5
ag3
ag3
a(g1
(I1
I1
tp18
tp19
ag15
ag15
a(g1
(I1
I-1
tp20
tp21
ag11
ag9
a(g12
g6
tp22
ag15
a(g12
g16
tp23
ag9
ag15
ag15
ag15
ag15
ag15
a.