(lp0
(S'move'
p1
(I1
I0
tp2
tp3
ag3
ag3
ag3
ag3
ag3
ag3
ag3
ag3
ag3
ag3
ag3
ag3
ag3
ag3
ag3
ag3
ag3
a(g1
(I-1
I0
tp4
tp5
ag5
a(g1
(I-1
I-1
tp6
tp7
a(g1
(I0
I-1
tp8
tp9
a(g1
(I1
I1
tp10
tp11
a(g1
(I0
I1
tp12
tp13
ag3
ag3
ag3
ag5
ag5
ag5
a(g1
(I-1
I1
tp14
tp15
ag13
a(g1
(I1
I-1
tp16
tp17
ag9
ag3
ag3
ag3
ag3
ag3
ag3
ag3
ag3
a.