(lp0
(S'shield'
p1
(I-1
I1
tp2
tp3
a(g1
(I0
I0
tp4
tp5
a(S'move'
p6
(I0
I1
tp7
tp8
a(g6
g2
tp9
ag8
ag8
a(g6
(I-1
I0
tp10
tp11
ag11
a(g1
(I-1
I-1
tp12
tp13
a(g1
g4
tp14
ag11
a(g1
g12
tp15
a(g1
g4
tp16
ag11
a(g6
g12
tp17
ag11
a(g6
(I1
I0
tp18
tp19
ag19
a(g6
(I1
I1
tp20
tp21
ag19
ag19
a(g6
(I1
I-1
tp22
tp23
a(g6
(I0
I-1
tp24
tp25
ag23
ag25
a(g1
g12
tp26
a(g1
g4
tp27
ag25
ag17
ag25
ag25
ag11
ag11
a(g1
g2
tp28
a(g1
g4
tp29
ag11
a(g1
g2
tp30
a(g1
g4
tp31
ag11
ag9
ag11
ag11
a(g1
g18
tp32
a(g1
g4
tp33
ag19
ag19
ag19
ag23
ag19
ag19
ag21
a(g1
g7
tp34
a(g1
g4
tp35
ag8
ag21
ag8
ag8
ag9
ag8
ag9
ag11
ag11
ag11
ag17
ag11
ag11
ag25
ag8
a(g1
g18
tp36
a(g1
g4
tp37
ag19
ag19
ag19
ag21
ag19
ag19
ag23
a(g1
g24
tp38
a(g1
g4
tp39
ag25
ag23
ag25
ag19
ag17
ag25
ag17
ag17
ag11
ag11
ag9
ag11
a(g1
g18
tp40
a(g1
g4
tp41
ag23
ag19
ag19
a(g1
g20
tp42
a(g1
g4
tp43
ag19
ag21
a(g1
g7
tp44
a(g1
g4
tp45
ag8
ag21
ag8
ag19
ag11
ag19
ag19
ag11
ag17
ag25
ag17
ag17
ag11
ag11
ag11
ag9
ag17
ag19
ag19
ag19
ag19
a(g1
g20
tp46
a(g1
g4
tp47
ag19
ag21
a(g1
g7
tp48
a(g1
g4
tp49
ag8
ag21
ag8
ag19
ag19
ag19
ag11
ag11
ag17
ag17
ag25
ag17
ag11
ag11
ag11
ag9
ag11
a(g1
g7
tp50
a(g1
g4
tp51
ag9
a(g1
g22
tp52
a(g1
g4
tp53
ag8
ag25
ag25
a(g1
g18
tp54
ag19
ag19
a(g1
g4
tp55
ag23
ag19
ag19
a(g1
g20
tp56
a(g1
g4
tp57
ag19
ag21
a(g1
g7
tp58
a(g1
g4
tp59
ag8
ag21
ag8
ag19
ag19
ag19
ag19
ag11
ag11
ag11
ag9
ag9
ag8
ag9
ag11
ag11
ag17
ag11
a(g1
g18
tp60
a(g1
g4
tp61
ag21
ag19
ag19
a(g1
g22
tp62
a(g1
g4
tp63
ag19
ag23
a(g1
g24
tp64
a(g1
g4
tp65
ag25
ag23
ag25
ag19
ag19
ag19
ag19
ag19
ag11
ag11
ag11
ag11
ag9
ag9
ag8
ag9
ag11
ag11
ag11
ag17
ag11
a(g1
g24
tp66
a(g1
g4
tp67
ag8
ag19
ag19
ag19
ag19
a(g1
g22
tp68
a(g1
g4
tp69
ag19
ag23
a(g1
g24
tp70
a(g1
g4
tp71
ag25
ag23
ag25
ag19
ag19
ag19
ag19
ag19
ag19
ag11
ag11
ag11
ag11
ag11
ag9
ag9
ag8
ag9
ag11
ag11
ag11
ag11
ag17
ag17
ag25
ag25
ag8
ag8
a(g1
g20
tp72
a(g1
g4
tp73
ag8
a(g1
g18
tp74
ag19
ag19
ag19
a(g1
g4
tp75
ag21
ag19
a(g1
g22
tp76
a(g1
g4
tp77
ag19
ag23
a(g1
g24
tp78
a(g1
g4
tp79
ag25
ag23
ag25
ag19
ag19
ag19
ag19
ag19
ag19
ag19
ag11
ag11
ag11
ag11
ag11
ag11
ag17
ag17
ag25
ag17
ag11
ag11
ag11
ag11
ag9
a(g1
g7
tp80
a(g1
g4
tp81
ag9
a(g1
g22
tp82
a(g1
g4
tp83
ag8
ag8
ag8
a(g1
g20
tp84
a(g1
g4
tp85
ag8
a(g1
g20
tp86
a(g1
g4
tp87
ag25
ag25
ag25
ag25
ag25
a(g1
g18
tp88
a(g1
g4
tp89
ag23
ag19
ag19
ag19
ag19
a(g1
g20
tp90
a(g1
g4
tp91
ag19
ag21
a(g1
g7
tp92
a(g1
g4
tp93
ag8
ag21
ag8
ag19
ag19
ag19
ag19
ag19
ag19
ag19
ag19
ag11
ag11
ag11
ag11
ag11
ag11
ag11
ag9
ag9
ag8
ag9
ag11
ag11
ag11
ag17
ag11
a(g1
g18
tp94
a(g1
g4
tp95
ag21
ag19
ag19
ag19
a(g1
g22
tp96
a(g1
g4
tp97
ag19
ag23
a(g1
g24
tp98
a(g1
g4
tp99
ag25
ag23
ag25
ag19
ag19
ag19
ag19
ag19
ag19
ag19
ag19
ag19
ag11
ag11
ag11
ag11
ag11
ag11
ag11
ag11
ag9
ag9
ag8
ag9
ag11
ag11
ag11
ag11
ag17
ag11
a(g1
g18
tp100
ag19
ag19
a(g1
g4
tp101
ag21
ag19
ag19
a(g1
g22
tp102
a(g1
g4
tp103
ag19
ag23
a(g1
g24
tp104
a(g1
g4
tp105
ag25
ag23
ag25
ag19
ag19
ag19
ag19
ag19
ag19
ag19
ag19
ag19
ag19
ag19
ag19
a.