(lp0
(S'move'
p1
(I0
I1
tp2
tp3
a(g1
(I1
I0
tp4
tp5
a(S'shield'
p6
(I1
I-1
tp7
tp8
a(g6
(I0
I0
tp9
tp10
ag5
a(g6
g7
tp11
a(g6
g9
tp12
a(g1
(I-1
I0
tp13
tp14
a(g1
(I-1
I-1
tp15
tp16
ag16
ag16
a(g1
(I0
I-1
tp17
tp18
ag18
a(g1
g7
tp19
ag19
ag19
ag5
ag5
a(g1
(I1
I1
tp20
tp21
ag21
ag21
ag3
a(g6
(I-1
I1
tp22
tp23
a(g6
g9
tp24
ag3
a(g6
g22
tp25
a(g6
g9
tp26
ag3
ag14
a(g1
g22
tp27
a(g6
g13
tp28
a(g6
g9
tp29
ag27
ag14
ag14
a(g6
g15
tp30
a(g6
g9
tp31
ag14
ag16
a(g6
g17
tp32
a(g6
g9
tp33
ag16
ag18
ag18
ag18
a(g6
g7
tp34
a(g6
g9
tp35
ag19
ag18
a(g6
g4
tp36
a(g6
g9
tp37
ag19
ag5
ag5
ag5
ag21
ag21
ag21
ag3
ag3
ag3
a(g6
g13
tp38
a(g6
g9
tp39
ag18
ag18
ag18
ag16
ag16
ag16
a(g6
g20
tp40
a(g6
g9
tp41
ag5
ag21
a(g6
g2
tp42
a(g6
g9
tp43
ag21
ag3
ag3
ag3
a(g6
g22
tp44
a(g6
g9
tp45
ag3
a(g6
g13
tp46
a(g6
g9
tp47
ag14
ag27
ag27
ag14
ag14
ag14
ag16
a(g6
g17
tp48
a(g6
g9
tp49
ag16
ag18
ag18
ag18
a(g6
g7
tp50
a(g6
g9
tp51
ag19
ag18
a(g6
g4
tp52
a(g6
g9
tp53
ag19
ag5
ag5
ag5
a(g6
g20
tp54
a(g6
g9
tp55
ag5
ag21
a(g6
g2
tp56
a(g6
g9
tp57
ag21
ag3
ag3
ag3
a(g6
g22
tp58
a(g6
g9
tp59
ag3
a(g6
g13
tp60
a(g6
g9
tp61
ag27
ag14
ag27
ag14
ag14
a(g6
g17
tp62
a(g6
g9
tp63
ag16
ag16
ag14
ag21
ag5
ag21
ag5
ag5
ag19
ag5
a(g6
g13
tp64
a(g6
g9
tp65
ag27
ag14
ag14
a(g6
g15
tp66
a(g6
g9
tp67
ag14
ag16
ag16
ag14
a(g6
g7
tp68
a(g6
g9
tp69
ag18
ag18
ag18
ag19
ag21
ag21
ag21
a.