(lp0
(S'move'
p1
(I0
I1
tp2
tp3
a(g1
(I1
I0
tp4
tp5
a(S'shield'
p6
(I1
I-1
tp7
tp8
a(g6
(I0
I0
tp9
tp10
ag5
a(g6
g7
tp11
a(g6
g9
tp12
ag5
a(g1
g7
tp13
ag5
ag13
a(g6
(I-1
I-1
tp14
tp15
a(g6
g9
tp16
a(g1
(I0
I-1
tp17
tp18
a(g6
g14
tp19
a(g6
g9
tp20
ag18
ag18
a(g1
g14
tp21
ag21
ag21
a(g1
(I1
I1
tp22
tp23
ag23
ag23
ag3
ag3
ag3
a(g1
(I-1
I1
tp24
tp25
a(g6
(I-1
I0
tp26
tp27
a(g6
g9
tp28
a(g1
g26
tp29
ag25
ag29
ag29
a(g6
g14
tp30
ag21
a(g6
g9
tp31
ag29
ag5
ag29
ag18
ag21
a(g6
g22
tp32
a(g6
g9
tp33
ag23
ag23
ag23
ag5
ag5
ag13
ag13
ag13
ag18
ag18
ag21
ag21
ag21
a(g6
g24
tp34
a(g6
g9
tp35
ag29
ag29
ag25
ag25
ag25
ag18
ag13
a(g6
g4
tp36
a(g6
g9
tp37
ag5
ag13
ag5
ag5
a(g6
g22
tp38
a(g6
g9
tp39
ag23
ag5
a(g6
g2
tp40
a(g6
g9
tp41
ag23
ag3
ag3
ag3
a(g6
g24
tp42
a(g6
g9
tp43
ag25
ag3
ag29
ag25
ag29
ag29
ag21
ag29
a(g6
g4
tp44
a(g6
g9
tp45
ag21
ag18
a(g6
g7
tp46
a(g6
g9
tp47
ag18
ag18
ag18
ag13
ag13
ag5
a(g6
g22
tp48
a(g6
g9
tp49
ag5
ag5
ag5
ag23
ag23
ag3
a(g6
g24
tp50
ag3
a(g1
(I0
I0
tp51
tp52
ag52
a(g6
g51
tp53
ag3
ag3
ag25
ag29
a(g6
g26
tp54
a(g6
g9
tp55
ag25
ag29
a(g6
g14
tp56
a(g6
g9
tp57
ag29
ag21
ag29
ag5
ag23
ag5
ag5
ag13
ag13
ag13
ag18
ag18
ag21
ag21
ag21
ag29
ag29
ag25
ag25
ag25
ag3
ag3
ag23
ag3
a(g6
g4
tp58
a(g6
g9
tp59
ag23
ag21
ag18
ag21
ag18
ag18
ag13
ag13
ag13
ag5
ag5
ag23
ag23
ag23
ag3
ag3
ag3
ag25
a(g6
g26
tp60
ag13
a(g6
g9
tp61
ag18
ag18
ag18
ag21
ag21
ag21
ag29
ag29
ag29
ag25
ag25
ag3
ag3
ag3
a(g6
g22
tp62
a(g6
g9
tp63
ag23
ag23
a(g6
g4
tp64
a(g6
g9
tp65
ag23
ag21
ag23
ag5
ag5
ag29
ag29
a(g6
g14
tp66
a(g6
g9
tp67
ag29
ag5
ag5
ag5
a(g6
g7
tp68
a(g6
g9
tp69
ag13
ag5
a(g6
g17
tp70
a(g6
g9
tp71
ag18
ag13
ag18
ag18
a(g6
g14
tp72
a(g6
g9
tp73
ag21
ag18
a(g6
g26
tp74
a(g6
g9
tp75
ag29
ag21
ag29
ag29
ag25
ag25
ag13
ag13
a(g6
g2
tp76
a(g6
g9
tp77
a(g6
g24
tp78
a(g6
g9
tp79
ag25
ag29
a(g6
g2
tp80
a(g6
g9
tp81
ag25
ag3
ag3
a(g6
g22
tp82
a(g6
g9
tp83
ag3
ag23
ag23
ag3
a(g6
g17
tp84
a(g6
g9
tp85
ag21
ag18
ag21
ag18
ag18
ag13
ag13
ag13
ag5
ag5
ag23
ag23
ag23
ag3
ag3
ag3
ag25
ag25
ag29
ag29
ag29
a(g6
g14
tp86
a(g6
g9
tp87
ag29
a(g6
g17
tp88
a(g6
g9
tp89
ag21
ag18
ag21
ag18
ag18
ag3
ag3
ag23
ag3
ag18
ag21
ag18
ag18
ag18
ag13
a(g6
g4
tp90
a(g6
g9
tp91
ag5
ag13
ag5
ag5
a(g6
g22
tp92
a(g6
g9
tp93
ag23
ag5
a(g6
g2
tp94
a(g6
g9
tp95
ag23
ag3
ag3
ag3
a(g6
g24
tp96
a(g6
g9
tp97
ag3
ag25
a(g6
g26
tp98
a(g6
g9
tp99
ag29
ag25
ag29
ag29
a(g6
g14
tp100
a(g6
g9
tp101
ag29
a(g6
g17
tp102
a(g6
g9
tp103
ag21
ag18
ag21
ag18
ag18
ag18
ag13
a(g6
g4
tp104
a(g6
g9
tp105
ag13
ag5
ag5
ag5
a(g6
g22
tp106
a(g6
g9
tp107
ag5
ag23
a(g6
g2
tp108
a(g6
g9
tp109
ag23
ag3
ag3
ag3
a(g6
g24
tp110
a(g6
g9
tp111
ag3
ag25
a(g6
g26
tp112
a(g6
g9
tp113
ag25
ag29
ag29
ag29
a(g6
g14
tp114
a(g6
g9
tp115
ag29
a(g6
g17
tp116
a(g6
g9
tp117
ag21
ag18
ag21
ag18
ag3
ag23
ag3
ag18
ag21
ag18
a(g6
g4
tp118
a(g6
g9
tp119
ag18
ag13
ag13
ag18
a(g6
g2
tp120
a(g6
g9
tp121
ag25
ag3
ag25
ag3
ag3
a(g6
g22
tp122
a(g6
g9
tp123
ag3
a(g6
g4
tp124
a(g6
g9
tp125
ag23
ag5
ag23
ag5
ag5
ag5
ag29
ag29
ag5
ag13
ag13
ag5
a(g6
g26
tp126
a(g6
g9
tp127
ag25
ag25
ag29
ag29
ag29
a(g6
g14
tp128
a(g6
g9
tp129
ag29
ag18
ag21
ag21
ag23
ag23
ag3
a(g6
g17
tp130
a(g6
g9
tp131
ag21
a(g6
g17
tp132
a(g6
g9
tp133
ag21
ag18
ag18
ag18
ag13
ag13
ag18
ag3
ag25
ag25
a(g6
g7
tp134
a(g6
g9
tp135
ag18
a(g6
g4
tp136
a(g6
g9
tp137
ag13
ag5
ag13
ag5
ag5
ag23
ag23
ag5
ag21
a(g6
g26
tp138
a(g6
g9
tp139
ag29
ag18
ag29
ag29
ag5
ag23
ag23
ag23
ag3
ag3
ag25
ag25
ag25
ag29
ag29
ag21
ag21
ag21
ag18
ag18
ag18
ag13
a(g6
g4
tp140
a(g6
g9
tp141
ag5
ag13
ag5
a(g6
g22
tp142
a(g6
g9
tp143
ag5
a(g6
g22
tp144
ag23
a(g6
g9
tp145
ag23
ag21
ag21
ag29
ag29
ag29
ag25
ag25
ag3
ag3
ag3
ag3
ag23
ag23
ag5
ag5
ag5
ag13
ag13
ag13
ag18
a(g6
g14
tp146
a(g6
g9
tp147
ag18
ag21
ag18
ag21
a(g6
g24
tp148
a(g6
g9
tp149
ag29
ag29
ag29
ag25
ag25
ag18
ag13
ag5
ag5
ag5
ag23
ag5
ag21
ag29
ag29
ag29
ag25
ag25
ag23
ag23
ag23
a.